; Function Attrs: mustprogress uwtable
define hidden void @_ZN7nanogui6Screen10draw_setupEv(ptr noundef nonnull align 8 dereferenceable(384) %0) unnamed_addr #12 align 2 {
_ZN7nanogui5ArrayIfLm2EEC2IiEERKNS0_IT_Lm2EEE.exit.critedge:
  %1 = getelementptr inbounds i8, ptr %0, i64 144
  %2 = load ptr, ptr %1, align 8
  tail call void @glfwMakeContextCurrent(ptr noundef %2)
  %3 = load ptr, ptr %1, align 8
  %4 = getelementptr inbounds i8, ptr %0, i64 240
  %5 = getelementptr inbounds i8, ptr %0, i64 244
  tail call void @glfwGetFramebufferSize(ptr noundef %3, ptr noundef nonnull %4, ptr noundef nonnull %5)
  %6 = load ptr, ptr %1, align 8
  %7 = getelementptr inbounds i8, ptr %0, i64 48
  %8 = getelementptr inbounds i8, ptr %0, i64 52
  tail call void @glfwGetWindowSize(ptr noundef %6, ptr noundef nonnull %7, ptr noundef nonnull %8)
  %9 = load i64, ptr %7, align 8
  store i64 %9, ptr %4, align 8
  %10 = lshr i64 %9, 32
  %11 = getelementptr inbounds i8, ptr %0, i64 248
  %12 = load <4 x float>, ptr %11, align 8
  %13 = insertelement <2 x i64> poison, i64 %9, i64 0
  %14 = insertelement <2 x i64> %13, i64 %10, i64 1
  %15 = trunc <2 x i64> %14 to <2 x i32>
  %16 = sitofp <2 x i32> %15 to <2 x float>
  %17 = shufflevector <4 x float> %12, <4 x float> poison, <2 x i32> zeroinitializer
  %18 = fdiv <2 x float> %16, %17
  %19 = fptosi <2 x float> %18 to <2 x i32>
  store <2 x i32> %19, ptr %7, align 8
  %20 = extractelement <2 x i32> %15, i64 0
  %21 = extractelement <2 x i32> %15, i64 1
  tail call void @glViewport(i32 noundef 0, i32 noundef 0, i32 noundef %20, i32 noundef %21)
  ret void
}